target datalayout = "e-m:e-p270:32:32-p271:32:32-p272:64:64-i64:64-i128:128-f80:128-n8:16:32:64-S128"
target triple = "x86_64-pc-linux-gnu"

%struct.Vec_Int_t_ = type { i32, i32, ptr }
%struct.Mf_Man_t_ = type { ptr, ptr, ptr, ptr, %struct.Vec_Ptr_t_, ptr, %struct.Vec_Int_t_, %struct.Vec_Int_t_, %struct.Vec_Int_t_, i32, i32, i32, i64, [4 x double], [11 x i32] }
%struct.Vec_Ptr_t_ = type { i32, i32, ptr }
%struct.Jf_Par_t_ = type { i32, i32, i32, i32, i32, i32, i32, i32, i32, i32, i32, i32, i32, i32, i32, i32, i32, i32, i32, i32, i32, i32, i32, i32, i32, i32, i32, i32, i32, i32, i32, i32, i32, i32, i32, i32, i32, i32, i32, i32, i64, i64, i64, i64, i64, i64, i64, i64, i32, float, float, float, float, ptr, ptr }

@stdout = external global ptr, align 8
@.str.16 = private unnamed_addr constant [15 x i8] c"LutSize = %d  \00", align 1
@.str.17 = private unnamed_addr constant [14 x i8] c"CutNum = %d  \00", align 1
@.str.18 = private unnamed_addr constant [12 x i8] c"Iter = %d  \00", align 1
@.str.19 = private unnamed_addr constant [12 x i8] c"Edge = %d  \00", align 1
@.str.20 = private unnamed_addr constant [14 x i8] c"CutMin = %d  \00", align 1
@.str.21 = private unnamed_addr constant [14 x i8] c"Coarse = %d  \00", align 1
@.str.22 = private unnamed_addr constant [11 x i8] c"CNF = %d  \00", align 1
@.str.23 = private unnamed_addr constant [11 x i8] c"FFL = %d  \00", align 1
@.str.24 = private unnamed_addr constant [2 x i8] c"\0A\00", align 1
@.str.25 = private unnamed_addr constant [19 x i8] c"Computing cuts...\0D\00", align 1

; Function Attrs: nounwind uwtable
define void @Mf_ManPrintInit(ptr noundef %0) #0 {
  %2 = alloca ptr, align 8
  store ptr %0, ptr %2, align 8, !tbaa !43
  %3 = load ptr, ptr %2, align 8, !tbaa !43
  %4 = getelementptr inbounds nuw %struct.Mf_Man_t_, ptr %3, i32 0, i32 2
  %5 = load ptr, ptr %4, align 8, !tbaa !68
  %6 = getelementptr inbounds nuw %struct.Jf_Par_t_, ptr %5, i32 0, i32 34
  %7 = load i32, ptr %6, align 8, !tbaa !239
  %8 = icmp ne i32 %7, 0
  br i1 %8, label %10, label %9

9:                                                ; preds = %1
  br label %69

10:                                               ; preds = %1
  %11 = load ptr, ptr %2, align 8, !tbaa !43
  %12 = getelementptr inbounds nuw %struct.Mf_Man_t_, ptr %11, i32 0, i32 2
  %13 = load ptr, ptr %12, align 8, !tbaa !68
  %14 = getelementptr inbounds nuw %struct.Jf_Par_t_, ptr %13, i32 0, i32 0
  %15 = load i32, ptr %14, align 8, !tbaa !69
  %16 = call i32 (ptr, ...) @printf(ptr noundef @.str.16, i32 noundef %15)
  %17 = load ptr, ptr %2, align 8, !tbaa !43
  %18 = getelementptr inbounds nuw %struct.Mf_Man_t_, ptr %17, i32 0, i32 2
  %19 = load ptr, ptr %18, align 8, !tbaa !68
  %20 = getelementptr inbounds nuw %struct.Jf_Par_t_, ptr %19, i32 0, i32 1
  %21 = load i32, ptr %20, align 4, !tbaa !128
  %22 = call i32 (ptr, ...) @printf(ptr noundef @.str.17, i32 noundef %21)
  %23 = load ptr, ptr %2, align 8, !tbaa !43
  %24 = getelementptr inbounds nuw %struct.Mf_Man_t_, ptr %23, i32 0, i32 2
  %25 = load ptr, ptr %24, align 8, !tbaa !68
  %26 = getelementptr inbounds nuw %struct.Jf_Par_t_, ptr %25, i32 0, i32 3
  %27 = load i32, ptr %26, align 4, !tbaa !232
  %28 = load ptr, ptr %2, align 8, !tbaa !43
  %29 = getelementptr inbounds nuw %struct.Mf_Man_t_, ptr %28, i32 0, i32 2
  %30 = load ptr, ptr %29, align 8, !tbaa !68
  %31 = getelementptr inbounds nuw %struct.Jf_Par_t_, ptr %30, i32 0, i32 4
  %32 = load i32, ptr %31, align 8, !tbaa !233
  %33 = add nsw i32 %27, %32
  %34 = call i32 (ptr, ...) @printf(ptr noundef @.str.18, i32 noundef %33)
  %35 = load ptr, ptr %2, align 8, !tbaa !43
  %36 = getelementptr inbounds nuw %struct.Mf_Man_t_, ptr %35, i32 0, i32 2
  %37 = load ptr, ptr %36, align 8, !tbaa !68
  %38 = getelementptr inbounds nuw %struct.Jf_Par_t_, ptr %37, i32 0, i32 18
  %39 = load i32, ptr %38, align 8, !tbaa !188
  %40 = call i32 (ptr, ...) @printf(ptr noundef @.str.19, i32 noundef %39)
  %41 = load ptr, ptr %2, align 8, !tbaa !43
  %42 = getelementptr inbounds nuw %struct.Mf_Man_t_, ptr %41, i32 0, i32 2
  %43 = load ptr, ptr %42, align 8, !tbaa !68
  %44 = getelementptr inbounds nuw %struct.Jf_Par_t_, ptr %43, i32 0, i32 22
  %45 = load i32, ptr %44, align 8, !tbaa !142
  %46 = call i32 (ptr, ...) @printf(ptr noundef @.str.20, i32 noundef %45)
  %47 = load ptr, ptr %2, align 8, !tbaa !43
  %48 = getelementptr inbounds nuw %struct.Mf_Man_t_, ptr %47, i32 0, i32 2
  %49 = load ptr, ptr %48, align 8, !tbaa !68
  %50 = getelementptr inbounds nuw %struct.Jf_Par_t_, ptr %49, i32 0, i32 21
  %51 = load i32, ptr %50, align 4, !tbaa !237
  %52 = call i32 (ptr, ...) @printf(ptr noundef @.str.21, i32 noundef %51)
  %53 = load ptr, ptr %2, align 8, !tbaa !43
  %54 = getelementptr inbounds nuw %struct.Mf_Man_t_, ptr %53, i32 0, i32 2
  %55 = load ptr, ptr %54, align 8, !tbaa !68
  %56 = getelementptr inbounds nuw %struct.Jf_Par_t_, ptr %55, i32 0, i32 24
  %57 = load i32, ptr %56, align 8, !tbaa !160
  %58 = call i32 (ptr, ...) @printf(ptr noundef @.str.22, i32 noundef %57)
  %59 = load ptr, ptr %2, align 8, !tbaa !43
  %60 = getelementptr inbounds nuw %struct.Mf_Man_t_, ptr %59, i32 0, i32 2
  %61 = load ptr, ptr %60, align 8, !tbaa !68
  %62 = getelementptr inbounds nuw %struct.Jf_Par_t_, ptr %61, i32 0, i32 25
  %63 = load i32, ptr %62, align 4, !tbaa !161
  %64 = call i32 (ptr, ...) @printf(ptr noundef @.str.23, i32 noundef %63)
  %65 = call i32 (ptr, ...) @printf(ptr noundef @.str.24)
  %66 = call i32 (ptr, ...) @printf(ptr noundef @.str.25)
  %67 = load ptr, ptr @stdout, align 8, !tbaa !186
  %68 = call i32 @fflush(ptr noundef %67)
  br label %69

69:                                               ; preds = %10, %9
  ret void
}