; Function Attrs: nofree nounwind uwtable
define void @Mf_ManPrintInit(ptr noundef readonly captures(none) %0) local_unnamed_addr #13 {
  %2 = getelementptr inbounds nuw i8, ptr %0, i64 16
  %3 = load ptr, ptr %2, align 8, !tbaa !86
  %4 = getelementptr inbounds nuw i8, ptr %3, i64 136
  %5 = load i32, ptr %4, align 8, !tbaa !268
  %.not = icmp eq i32 %5, 0
  br i1 %.not, label %43, label %6

6:                                                ; preds = %1
  %7 = load i32, ptr %3, align 8, !tbaa !87
  %8 = tail call i32 (ptr, ...) @printf(ptr noundef nonnull dereferenceable(1) @.str.16, i32 noundef %7)
  %9 = load ptr, ptr %2, align 8, !tbaa !86
  %10 = getelementptr inbounds nuw i8, ptr %9, i64 4
  %11 = load i32, ptr %10, align 4, !tbaa !135
  %12 = tail call i32 (ptr, ...) @printf(ptr noundef nonnull dereferenceable(1) @.str.17, i32 noundef %11)
  %13 = load ptr, ptr %2, align 8, !tbaa !86
  %14 = getelementptr inbounds nuw i8, ptr %13, i64 12
  %15 = load i32, ptr %14, align 4, !tbaa !259
  %16 = getelementptr inbounds nuw i8, ptr %13, i64 16
  %17 = load i32, ptr %16, align 8, !tbaa !260
  %18 = add nsw i32 %17, %15
  %19 = tail call i32 (ptr, ...) @printf(ptr noundef nonnull dereferenceable(1) @.str.18, i32 noundef %18)
  %20 = load ptr, ptr %2, align 8, !tbaa !86
  %21 = getelementptr inbounds nuw i8, ptr %20, i64 72
  %22 = load i32, ptr %21, align 8, !tbaa !153
  %23 = tail call i32 (ptr, ...) @printf(ptr noundef nonnull dereferenceable(1) @.str.19, i32 noundef %22)
  %24 = load ptr, ptr %2, align 8, !tbaa !86
  %25 = getelementptr inbounds nuw i8, ptr %24, i64 88
  %26 = load i32, ptr %25, align 8, !tbaa !162
  %27 = tail call i32 (ptr, ...) @printf(ptr noundef nonnull dereferenceable(1) @.str.20, i32 noundef %26)
  %28 = load ptr, ptr %2, align 8, !tbaa !86
  %29 = getelementptr inbounds nuw i8, ptr %28, i64 84
  %30 = load i32, ptr %29, align 4, !tbaa !263
  %31 = tail call i32 (ptr, ...) @printf(ptr noundef nonnull dereferenceable(1) @.str.21, i32 noundef %30)
  %32 = load ptr, ptr %2, align 8, !tbaa !86
  %33 = getelementptr inbounds nuw i8, ptr %32, i64 96
  %34 = load i32, ptr %33, align 8, !tbaa !151
  %35 = tail call i32 (ptr, ...) @printf(ptr noundef nonnull dereferenceable(1) @.str.22, i32 noundef %34)
  %36 = load ptr, ptr %2, align 8, !tbaa !86
  %37 = getelementptr inbounds nuw i8, ptr %36, i64 100
  %38 = load i32, ptr %37, align 4, !tbaa !152
  %39 = tail call i32 (ptr, ...) @printf(ptr noundef nonnull dereferenceable(1) @.str.23, i32 noundef %38)
  %putchar = tail call i32 @putchar(i32 10)
  %40 = tail call i32 (ptr, ...) @printf(ptr noundef nonnull dereferenceable(1) @.str.25)
  %41 = load ptr, ptr @stdout, align 8, !tbaa !217
  %42 = tail call i32 @fflush(ptr noundef %41)
  br label %43

43:                                               ; preds = %1, %6
  ret void
}